target datalayout = "e-m:e-p270:32:32-p271:32:32-p272:64:64-i64:64-i128:128-f80:128-n8:16:32:64-S128"
target triple = "x86_64-pc-linux-gnu"

%"class.clang::QualType" = type { %"class.llvm::PointerIntPair" }
%"class.llvm::PointerIntPair" = type { %"struct.llvm::detail::PunnedPointer" }
%"struct.llvm::detail::PunnedPointer" = type { [8 x i8] }
%"class.clang::ento::SValBuilder" = type <{ ptr, ptr, %"class.clang::ento::BasicValueFactory", %"class.clang::ento::SymbolManager", %"class.clang::ento::MemRegionManager", ptr, ptr, %"class.clang::QualType", i32, [4 x i8] }>
%"class.clang::ento::BasicValueFactory" = type { ptr, ptr, %"class.llvm::FoldingSet", ptr, ptr, %"class.llvm::ImmutableListFactory", %"class.llvm::ImmutableListFactory.2", %"class.llvm::FoldingSet.5", %"class.llvm::FoldingSet.7", %"class.llvm::FoldingSet.9" }
%"class.llvm::FoldingSet" = type { %"class.llvm::FoldingSetImpl" }
%"class.llvm::FoldingSetImpl" = type { %"class.llvm::FoldingSetBase" }
%"class.llvm::FoldingSetBase" = type { ptr, i32, i32 }
%"class.llvm::ImmutableListFactory" = type { %"class.llvm::FoldingSet.0", i64 }
%"class.llvm::FoldingSet.0" = type { %"class.llvm::FoldingSetImpl.1" }
%"class.llvm::FoldingSetImpl.1" = type { %"class.llvm::FoldingSetBase" }
%"class.llvm::ImmutableListFactory.2" = type { %"class.llvm::FoldingSet.3", i64 }
%"class.llvm::FoldingSet.3" = type { %"class.llvm::FoldingSetImpl.4" }
%"class.llvm::FoldingSetImpl.4" = type { %"class.llvm::FoldingSetBase" }
%"class.llvm::FoldingSet.5" = type { %"class.llvm::FoldingSetImpl.6" }
%"class.llvm::FoldingSetImpl.6" = type { %"class.llvm::FoldingSetBase" }
%"class.llvm::FoldingSet.7" = type { %"class.llvm::FoldingSetImpl.8" }
%"class.llvm::FoldingSetImpl.8" = type { %"class.llvm::FoldingSetBase" }
%"class.llvm::FoldingSet.9" = type { %"class.llvm::FoldingSetImpl.10" }
%"class.llvm::FoldingSetImpl.10" = type { %"class.llvm::FoldingSetBase" }
%"class.clang::ento::SymbolManager" = type { %"class.llvm::FoldingSet.11", %"class.llvm::DenseMap", i32, ptr, ptr, ptr }
%"class.llvm::FoldingSet.11" = type { %"class.llvm::FoldingSetImpl.12" }
%"class.llvm::FoldingSetImpl.12" = type { %"class.llvm::FoldingSetBase" }
%"class.llvm::DenseMap" = type <{ ptr, i32, i32, i32, [4 x i8] }>
%"class.clang::ento::MemRegionManager" = type { ptr, ptr, %"class.llvm::FoldingSet.13", ptr, ptr, ptr, %"class.llvm::DenseMap.15", %"class.llvm::DenseMap.18", %"class.llvm::DenseMap.21", ptr, ptr, ptr }
%"class.llvm::FoldingSet.13" = type { %"class.llvm::FoldingSetImpl.14" }
%"class.llvm::FoldingSetImpl.14" = type { %"class.llvm::FoldingSetBase" }
%"class.llvm::DenseMap.15" = type <{ ptr, i32, i32, i32, [4 x i8] }>
%"class.llvm::DenseMap.18" = type <{ ptr, i32, i32, i32, [4 x i8] }>
%"class.llvm::DenseMap.21" = type <{ ptr, i32, i32, i32, [4 x i8] }>
%"class.clang::ento::SVal.base" = type <{ ptr, i8 }>
%"class.clang::ento::DefinedSVal.base" = type { %"class.clang::ento::DefinedOrUnknownSVal.base" }
%"class.clang::ento::DefinedOrUnknownSVal.base" = type { %"class.clang::ento::SVal.base" }
%"class.clang::ento::NonLoc.base" = type { %"class.clang::ento::DefinedSVal.base" }
%"class.clang::ento::nonloc::SymbolVal" = type { %"class.clang::ento::NonLoc.base", [7 x i8] }
%"class.clang::ento::SVal" = type <{ ptr, i8, [7 x i8] }>

; Function Attrs: mustprogress nounwind uwtable
define linkonce_odr hidden void @_ZN5clang4ento4SValC2ENS1_8SValKindEPKv(ptr noundef nonnull align 8 dereferenceable(9) %0, i8 noundef zeroext %1, ptr noundef %2) unnamed_addr #0 comdat align 2 {
  %4 = alloca ptr, align 8
  %5 = alloca i8, align 1
  %6 = alloca ptr, align 8
  store ptr %0, ptr %4, align 8
  store i8 %1, ptr %5, align 1
  store ptr %2, ptr %6, align 8
  %7 = load ptr, ptr %4, align 8
  %8 = getelementptr inbounds nuw %"class.clang::ento::SVal", ptr %7, i32 0, i32 0
  %9 = load ptr, ptr %6, align 8
  store ptr %9, ptr %8, align 8
  %10 = getelementptr inbounds nuw %"class.clang::ento::SVal", ptr %7, i32 0, i32 1
  %11 = load i8, ptr %5, align 1
  store i8 %11, ptr %10, align 8
  ret void
}

; Function Attrs: mustprogress nounwind uwtable
define linkonce_odr hidden void @_ZN5clang4ento20DefinedOrUnknownSValC2ENS0_4SVal8SValKindEPKv(ptr noundef nonnull align 8 dereferenceable(9) %0, i8 noundef zeroext %1, ptr noundef %2) unnamed_addr #0 comdat align 2 {
  %4 = alloca ptr, align 8
  %5 = alloca i8, align 1
  %6 = alloca ptr, align 8
  store ptr %0, ptr %4, align 8
  store i8 %1, ptr %5, align 1
  store ptr %2, ptr %6, align 8
  %7 = load ptr, ptr %4, align 8
  %8 = load i8, ptr %5, align 1
  %9 = load ptr, ptr %6, align 8
  call void @_ZN5clang4ento4SValC2ENS1_8SValKindEPKv(ptr noundef nonnull align 8 dereferenceable(9) %7, i8 noundef zeroext %8, ptr noundef %9)
  ret void
}

; Function Attrs: mustprogress nounwind uwtable
define linkonce_odr hidden noundef i64 @_ZNK4llvm6detail13PunnedPointerINS_12PointerUnionIJPKN5clang4TypeEPKNS3_8ExtQualsEEEEE5asIntEv(ptr noundef nonnull align 8 dereferenceable(8) %0) #0 comdat align 2 {
  %2 = alloca ptr, align 8
  %3 = alloca i64, align 8
  store ptr %0, ptr %2, align 8
  %4 = load ptr, ptr %2, align 8
  store i64 0, ptr %3, align 8
  %5 = getelementptr inbounds nuw %"struct.llvm::detail::PunnedPointer", ptr %4, i32 0, i32 0
  %6 = getelementptr inbounds [8 x i8], ptr %5, i64 0, i64 0
  call void @llvm.memcpy.p0.p0.i64(ptr align 8 %3, ptr align 8 %6, i64 8, i1 false)
  %7 = load i64, ptr %3, align 8
  ret i64 %7
}

; Function Attrs: mustprogress nounwind uwtable
define linkonce_odr hidden void @_ZN5clang4ento11DefinedSValC2ENS0_4SVal8SValKindEPKv(ptr noundef nonnull align 8 dereferenceable(9) %0, i8 noundef zeroext %1, ptr noundef %2) unnamed_addr #0 comdat align 2 {
  %4 = alloca ptr, align 8
  %5 = alloca i8, align 1
  %6 = alloca ptr, align 8
  store ptr %0, ptr %4, align 8
  store i8 %1, ptr %5, align 1
  store ptr %2, ptr %6, align 8
  %7 = load ptr, ptr %4, align 8
  %8 = load i8, ptr %5, align 1
  %9 = load ptr, ptr %6, align 8
  call void @_ZN5clang4ento20DefinedOrUnknownSValC2ENS0_4SVal8SValKindEPKv(ptr noundef nonnull align 8 dereferenceable(9) %7, i8 noundef zeroext %8, ptr noundef %9)
  ret void
}

; Function Attrs: mustprogress nounwind uwtable
define linkonce_odr hidden noundef i64 @_ZNK4llvm6detail13PunnedPointerINS_12PointerUnionIJPKN5clang4TypeEPKNS3_8ExtQualsEEEEEcvlEv(ptr noundef nonnull align 8 dereferenceable(8) %0) #0 comdat align 2 {
  %2 = alloca ptr, align 8
  store ptr %0, ptr %2, align 8
  %3 = load ptr, ptr %2, align 8
  %4 = call noundef i64 @_ZNK4llvm6detail13PunnedPointerINS_12PointerUnionIJPKN5clang4TypeEPKNS3_8ExtQualsEEEEE5asIntEv(ptr noundef nonnull align 8 dereferenceable(8) %3)
  ret i64 %4
}

; Function Attrs: mustprogress nounwind uwtable
define linkonce_odr hidden void @_ZN5clang4ento6NonLocC2ENS0_4SVal8SValKindEPKv(ptr noundef nonnull align 8 dereferenceable(9) %0, i8 noundef zeroext %1, ptr noundef %2) unnamed_addr #0 comdat align 2 {
  %4 = alloca ptr, align 8
  %5 = alloca i8, align 1
  %6 = alloca ptr, align 8
  store ptr %0, ptr %4, align 8
  store i8 %1, ptr %5, align 1
  store ptr %2, ptr %6, align 8
  %7 = load ptr, ptr %4, align 8
  %8 = load i8, ptr %5, align 1
  %9 = load ptr, ptr %6, align 8
  call void @_ZN5clang4ento11DefinedSValC2ENS0_4SVal8SValKindEPKv(ptr noundef nonnull align 8 dereferenceable(9) %7, i8 noundef zeroext %8, ptr noundef %9)
  ret void
}

; Function Attrs: mustprogress nounwind uwtable
define linkonce_odr hidden noundef zeroext i1 @_ZNK4llvm14PointerIntPairINS_12PointerUnionIJPKN5clang4TypeEPKNS2_8ExtQualsEEEELj3EjNS_21PointerLikeTypeTraitsIS9_EENS_18PointerIntPairInfoIS9_Lj3ESB_EEEeqERKSE_(ptr noundef nonnull align 8 dereferenceable(8) %0, ptr noundef nonnull align 8 dereferenceable(8) %1) #0 comdat align 2 {
  %3 = alloca ptr, align 8
  %4 = alloca ptr, align 8
  store ptr %0, ptr %3, align 8
  store ptr %1, ptr %4, align 8
  %5 = load ptr, ptr %3, align 8
  %6 = getelementptr inbounds nuw %"class.llvm::PointerIntPair", ptr %5, i32 0, i32 0
  %7 = call noundef i64 @_ZNK4llvm6detail13PunnedPointerINS_12PointerUnionIJPKN5clang4TypeEPKNS3_8ExtQualsEEEEEcvlEv(ptr noundef nonnull align 8 dereferenceable(8) %6)
  %8 = load ptr, ptr %4, align 8
  %9 = getelementptr inbounds nuw %"class.llvm::PointerIntPair", ptr %8, i32 0, i32 0
  %10 = call noundef i64 @_ZNK4llvm6detail13PunnedPointerINS_12PointerUnionIJPKN5clang4TypeEPKNS3_8ExtQualsEEEEEcvlEv(ptr noundef nonnull align 8 dereferenceable(8) %9)
  %11 = icmp eq i64 %7, %10
  ret i1 %11
}

; Function Attrs: mustprogress nounwind uwtable
define linkonce_odr hidden void @_ZN5clang4ento6nonloc9SymbolValC2EPKNS0_7SymExprE(ptr noundef nonnull align 8 dereferenceable(9) %0, ptr noundef %1) unnamed_addr #0 comdat align 2 {
  %3 = alloca ptr, align 8
  %4 = alloca ptr, align 8
  store ptr %0, ptr %3, align 8
  store ptr %1, ptr %4, align 8
  %5 = load ptr, ptr %3, align 8
  %6 = load ptr, ptr %4, align 8
  call void @_ZN5clang4ento6NonLocC2ENS0_4SVal8SValKindEPKv(ptr noundef nonnull align 8 dereferenceable(9) %5, i8 noundef zeroext 9, ptr noundef %6)
  ret void
}

; Function Attrs: mustprogress nounwind uwtable
define linkonce_odr hidden noundef zeroext i1 @_ZN5clangeqERKNS_8QualTypeES2_(ptr noundef nonnull align 8 dereferenceable(8) %0, ptr noundef nonnull align 8 dereferenceable(8) %1) #0 comdat {
  %3 = alloca ptr, align 8
  %4 = alloca ptr, align 8
  store ptr %0, ptr %3, align 8
  store ptr %1, ptr %4, align 8
  %5 = load ptr, ptr %3, align 8
  %6 = getelementptr inbounds nuw %"class.clang::QualType", ptr %5, i32 0, i32 0
  %7 = load ptr, ptr %4, align 8
  %8 = getelementptr inbounds nuw %"class.clang::QualType", ptr %7, i32 0, i32 0
  %9 = call noundef zeroext i1 @_ZNK4llvm14PointerIntPairINS_12PointerUnionIJPKN5clang4TypeEPKNS2_8ExtQualsEEEELj3EjNS_21PointerLikeTypeTraitsIS9_EENS_18PointerIntPairInfoIS9_Lj3ESB_EEEeqERKSE_(ptr noundef nonnull align 8 dereferenceable(8) %6, ptr noundef nonnull align 8 dereferenceable(8) %8)
  ret i1 %9
}

; Function Attrs: mustprogress nounwind uwtable
define dso_local { ptr, i8 } @_ZN5clang4ento11SValBuilder10makeNonLocEPKNS0_7SymExprENS_8QualTypeES5_(ptr noundef nonnull align 8 dereferenceable(412) %0, ptr noundef %1, i64 %2, i64 %3) #0 align 2 {
  %5 = alloca %"class.clang::ento::nonloc::SymbolVal", align 8
  %6 = alloca %"class.clang::QualType", align 8
  %7 = alloca %"class.clang::QualType", align 8
  %8 = alloca ptr, align 8
  %9 = alloca ptr, align 8
  %10 = alloca %"class.clang::QualType", align 8
  %11 = alloca %"class.clang::QualType", align 8
  %12 = getelementptr inbounds nuw %"class.clang::QualType", ptr %6, i32 0, i32 0
  %13 = getelementptr inbounds nuw %"class.llvm::PointerIntPair", ptr %12, i32 0, i32 0
  %14 = getelementptr inbounds nuw %"struct.llvm::detail::PunnedPointer", ptr %13, i32 0, i32 0
  store i64 %2, ptr %14, align 8
  %15 = getelementptr inbounds nuw %"class.clang::QualType", ptr %7, i32 0, i32 0
  %16 = getelementptr inbounds nuw %"class.llvm::PointerIntPair", ptr %15, i32 0, i32 0
  %17 = getelementptr inbounds nuw %"struct.llvm::detail::PunnedPointer", ptr %16, i32 0, i32 0
  store i64 %3, ptr %17, align 8
  store ptr %0, ptr %8, align 8
  store ptr %1, ptr %9, align 8
  %18 = load ptr, ptr %8, align 8
  %19 = call noundef zeroext i1 @_ZN5clangeqERKNS_8QualTypeES2_(ptr noundef nonnull align 8 dereferenceable(8) %6, ptr noundef nonnull align 8 dereferenceable(8) %7)
  br i1 %19, label %20, label %22

20:                                               ; preds = %4
  %21 = load ptr, ptr %9, align 8
  call void @_ZN5clang4ento6nonloc9SymbolValC2EPKNS0_7SymExprE(ptr noundef nonnull align 8 dereferenceable(9) %5, ptr noundef %21)
  br label %34

22:                                               ; preds = %4
  %23 = getelementptr inbounds nuw %"class.clang::ento::SValBuilder", ptr %18, i32 0, i32 3
  %24 = load ptr, ptr %9, align 8
  call void @llvm.memcpy.p0.p0.i64(ptr align 8 %10, ptr align 8 %6, i64 8, i1 false)
  call void @llvm.memcpy.p0.p0.i64(ptr align 8 %11, ptr align 8 %7, i64 8, i1 false)
  %25 = getelementptr inbounds nuw %"class.clang::QualType", ptr %10, i32 0, i32 0
  %26 = getelementptr inbounds nuw %"class.llvm::PointerIntPair", ptr %25, i32 0, i32 0
  %27 = getelementptr inbounds nuw %"struct.llvm::detail::PunnedPointer", ptr %26, i32 0, i32 0
  %28 = load i64, ptr %27, align 8
  %29 = getelementptr inbounds nuw %"class.clang::QualType", ptr %11, i32 0, i32 0
  %30 = getelementptr inbounds nuw %"class.llvm::PointerIntPair", ptr %29, i32 0, i32 0
  %31 = getelementptr inbounds nuw %"struct.llvm::detail::PunnedPointer", ptr %30, i32 0, i32 0
  %32 = load i64, ptr %31, align 8
  %33 = call noundef ptr @_ZN5clang4ento13SymbolManager13getCastSymbolEPKNS0_7SymExprENS_8QualTypeES5_(ptr noundef nonnull align 8 dereferenceable(72) %23, ptr noundef %24, i64 %28, i64 %32)
  call void @_ZN5clang4ento6nonloc9SymbolValC2EPKNS0_7SymExprE(ptr noundef nonnull align 8 dereferenceable(9) %5, ptr noundef %33)
  br label %34

34:                                               ; preds = %22, %20
  %35 = load { ptr, i8 }, ptr %5, align 8
  ret { ptr, i8 } %35
}