; Function Attrs: mustprogress nounwind uwtable
define dso_local { ptr, i8 } @_ZN5clang4ento11SValBuilder10makeNonLocEPKNS0_7SymExprENS_8QualTypeES5_(ptr noundef nonnull align 8 dereferenceable(412) %0, ptr noundef %1, i64 %2, i64 %3) local_unnamed_addr #1 align 2 {
  %5 = icmp eq i64 %2, %3
  br i1 %5, label %9, label %6

6:                                                ; preds = %4
  %7 = getelementptr inbounds nuw i8, ptr %0, i64 160
  %8 = tail call noundef ptr @_ZN5clang4ento13SymbolManager13getCastSymbolEPKNS0_7SymExprENS_8QualTypeES5_(ptr noundef nonnull align 8 dereferenceable(72) %7, ptr noundef %1, i64 %2, i64 %3) #12
  br label %9

9:                                                ; preds = %4, %6
  %.sroa.07.0 = phi ptr [ %8, %6 ], [ %1, %4 ]
  %.fca.0.insert = insertvalue { ptr, i8 } poison, ptr %.sroa.07.0, 0
  %.fca.1.insert = insertvalue { ptr, i8 } %.fca.0.insert, i8 9, 1
  ret { ptr, i8 } %.fca.1.insert
}